; Function Attrs: nounwind uwtable
define internal fastcc void @history_tree_free(ptr noundef nonnull captures(none) %0) unnamed_addr #4 {
  %2 = getelementptr inbounds nuw i8, ptr %0, i64 16
  %3 = load i32, ptr %2, align 8, !tbaa !33
  %4 = icmp sgt i32 %3, 0
  br i1 %4, label %.lr.ph, label %.preheader

.lr.ph:                                           ; preds = %1
  %5 = getelementptr inbounds nuw i8, ptr %0, i64 24
  br label %13

.preheader:                                       ; preds = %19, %1
  %6 = getelementptr inbounds nuw i8, ptr %0, i64 12
  %7 = load i32, ptr %6, align 4, !tbaa !32
  %8 = icmp sgt i32 %7, 0
  %9 = getelementptr inbounds nuw i8, ptr %0, i64 24
  %10 = load ptr, ptr %9, align 8, !tbaa !29
  br i1 %8, label %.lr.ph6, label %history_tree_clear.exit

.lr.ph6:                                          ; preds = %.preheader
  %11 = zext nneg i32 %7 to i64
  %12 = shl nuw nsw i64 %11, 3
  tail call void @llvm.memset.p0.i64(ptr align 8 %10, i8 0, i64 %12, i1 false), !tbaa !37
  br label %history_tree_clear.exit

13:                                               ; preds = %.lr.ph, %19
  %14 = phi i32 [ %3, %.lr.ph ], [ %20, %19 ]
  %indvars.iv = phi i64 [ 0, %.lr.ph ], [ %indvars.iv.next, %19 ]
  %15 = load ptr, ptr %5, align 8, !tbaa !29
  %16 = getelementptr inbounds nuw ptr, ptr %15, i64 %indvars.iv
  %17 = load ptr, ptr %16, align 8, !tbaa !37
  %.not.i = icmp eq ptr %17, null
  br i1 %.not.i, label %19, label %18

18:                                               ; preds = %13
  tail call fastcc void @history_tree_free(ptr noundef %17)
  %.pre = load i32, ptr %2, align 8, !tbaa !33
  br label %19

19:                                               ; preds = %18, %13
  %20 = phi i32 [ %.pre, %18 ], [ %14, %13 ]
  %indvars.iv.next = add nuw nsw i64 %indvars.iv, 1
  %21 = sext i32 %20 to i64
  %22 = icmp slt i64 %indvars.iv.next, %21
  br i1 %22, label %13, label %.preheader, !llvm.loop !212

history_tree_clear.exit:                          ; preds = %.preheader, %.lr.ph6
  store i32 0, ptr %2, align 8, !tbaa !33
  %23 = getelementptr inbounds nuw i8, ptr %0, i64 4
  store i32 -1, ptr %23, align 4, !tbaa !35
  %24 = getelementptr inbounds nuw i8, ptr %0, i64 8
  store i32 -1, ptr %24, align 8, !tbaa !36
  store i32 -1, ptr %0, align 8, !tbaa !34
  %.not = icmp eq ptr %10, null
  br i1 %.not, label %26, label %25

25:                                               ; preds = %history_tree_clear.exit
  tail call void @free(ptr noundef nonnull %10) #30
  br label %26

26:                                               ; preds = %25, %history_tree_clear.exit
  tail call void @free(ptr noundef nonnull %0) #30
  ret void
}